target datalayout = "e-m:e-p270:32:32-p271:32:32-p272:64:64-i64:64-i128:128-f80:128-n8:16:32:64-S128"
target triple = "x86_64-pc-linux-gnu"

%struct.connection = type { ptr, ptr, i8, ptr, ptr, ptr }

@.str.1 = private unnamed_addr constant [56 x i8] c"ECPGsetcommit on line %d: action \22%s\22; connection \22%s\22\0A\00", align 1
@.str.2 = private unnamed_addr constant [4 x i8] c"off\00", align 1
@.str.3 = private unnamed_addr constant [18 x i8] c"begin transaction\00", align 1
@.str.4 = private unnamed_addr constant [3 x i8] c"on\00", align 1
@.str.5 = private unnamed_addr constant [7 x i8] c"commit\00", align 1

; Function Attrs: nounwind uwtable
define zeroext i1 @ECPGsetcommit(i32 noundef %0, ptr noundef %1, ptr noundef %2) #0 {
  %4 = alloca i1, align 1
  %5 = alloca i32, align 4
  %6 = alloca ptr, align 8
  %7 = alloca ptr, align 8
  %8 = alloca ptr, align 8
  %9 = alloca ptr, align 8
  %10 = alloca i32, align 4
  store i32 %0, ptr %5, align 4
  store ptr %1, ptr %6, align 8
  store ptr %2, ptr %7, align 8
  call void @llvm.lifetime.start.p0(i64 8, ptr %8) #5
  %11 = load ptr, ptr %7, align 8
  %12 = call ptr @ecpg_get_connection(ptr noundef %11)
  store ptr %12, ptr %8, align 8
  call void @llvm.lifetime.start.p0(i64 8, ptr %9) #5
  %13 = load ptr, ptr %8, align 8
  %14 = load ptr, ptr %7, align 8
  %15 = load i32, ptr %5, align 4
  %16 = call zeroext i1 @ecpg_init(ptr noundef %13, ptr noundef %14, i32 noundef %15)
  br i1 %16, label %18, label %17

17:                                               ; preds = %3
  store i1 false, ptr %4, align 1
  store i32 1, ptr %10, align 4
  br label %89

18:                                               ; preds = %3
  %19 = load i32, ptr %5, align 4
  %20 = load ptr, ptr %6, align 8
  %21 = load ptr, ptr %8, align 8
  %22 = getelementptr inbounds nuw %struct.connection, ptr %21, i32 0, i32 0
  %23 = load ptr, ptr %22, align 8
  call void (ptr, ...) @ecpg_log(ptr noundef @.str.1, i32 noundef %19, ptr noundef %20, ptr noundef %23)
  %24 = load ptr, ptr %8, align 8
  %25 = getelementptr inbounds nuw %struct.connection, ptr %24, i32 0, i32 2
  %26 = load i8, ptr %25, align 8, !range !5, !noundef !6
  %27 = trunc i8 %26 to i1
  br i1 %27, label %28, label %55

28:                                               ; preds = %18
  %29 = load ptr, ptr %6, align 8
  %30 = call i32 @strncmp(ptr noundef %29, ptr noundef @.str.2, i64 noundef 3) #6
  %31 = icmp eq i32 %30, 0
  br i1 %31, label %32, label %55

32:                                               ; preds = %28
  %33 = load ptr, ptr %8, align 8
  %34 = getelementptr inbounds nuw %struct.connection, ptr %33, i32 0, i32 1
  %35 = load ptr, ptr %34, align 8
  %36 = call i32 @PQtransactionStatus(ptr noundef %35)
  %37 = icmp eq i32 %36, 0
  br i1 %37, label %38, label %52

38:                                               ; preds = %32
  %39 = load ptr, ptr %8, align 8
  %40 = getelementptr inbounds nuw %struct.connection, ptr %39, i32 0, i32 1
  %41 = load ptr, ptr %40, align 8
  %42 = call ptr @PQexec(ptr noundef %41, ptr noundef @.str.3)
  store ptr %42, ptr %9, align 8
  %43 = load ptr, ptr %9, align 8
  %44 = load i32, ptr %5, align 4
  %45 = load ptr, ptr %8, align 8
  %46 = getelementptr inbounds nuw %struct.connection, ptr %45, i32 0, i32 1
  %47 = load ptr, ptr %46, align 8
  %48 = call zeroext i1 @ecpg_check_PQresult(ptr noundef %43, i32 noundef %44, ptr noundef %47, i32 noundef 0)
  br i1 %48, label %50, label %49

49:                                               ; preds = %38
  store i1 false, ptr %4, align 1
  store i32 1, ptr %10, align 4
  br label %89

50:                                               ; preds = %38
  %51 = load ptr, ptr %9, align 8
  call void @PQclear(ptr noundef %51)
  br label %52

52:                                               ; preds = %50, %32
  %53 = load ptr, ptr %8, align 8
  %54 = getelementptr inbounds nuw %struct.connection, ptr %53, i32 0, i32 2
  store i8 0, ptr %54, align 8
  br label %88

55:                                               ; preds = %28, %18
  %56 = load ptr, ptr %8, align 8
  %57 = getelementptr inbounds nuw %struct.connection, ptr %56, i32 0, i32 2
  %58 = load i8, ptr %57, align 8, !range !5, !noundef !6
  %59 = trunc i8 %58 to i1
  br i1 %59, label %87, label %60

60:                                               ; preds = %55
  %61 = load ptr, ptr %6, align 8
  %62 = call i32 @strncmp(ptr noundef %61, ptr noundef @.str.4, i64 noundef 2) #6
  %63 = icmp eq i32 %62, 0
  br i1 %63, label %64, label %87

64:                                               ; preds = %60
  %65 = load ptr, ptr %8, align 8
  %66 = getelementptr inbounds nuw %struct.connection, ptr %65, i32 0, i32 1
  %67 = load ptr, ptr %66, align 8
  %68 = call i32 @PQtransactionStatus(ptr noundef %67)
  %69 = icmp ne i32 %68, 0
  br i1 %69, label %70, label %84

70:                                               ; preds = %64
  %71 = load ptr, ptr %8, align 8
  %72 = getelementptr inbounds nuw %struct.connection, ptr %71, i32 0, i32 1
  %73 = load ptr, ptr %72, align 8
  %74 = call ptr @PQexec(ptr noundef %73, ptr noundef @.str.5)
  store ptr %74, ptr %9, align 8
  %75 = load ptr, ptr %9, align 8
  %76 = load i32, ptr %5, align 4
  %77 = load ptr, ptr %8, align 8
  %78 = getelementptr inbounds nuw %struct.connection, ptr %77, i32 0, i32 1
  %79 = load ptr, ptr %78, align 8
  %80 = call zeroext i1 @ecpg_check_PQresult(ptr noundef %75, i32 noundef %76, ptr noundef %79, i32 noundef 0)
  br i1 %80, label %82, label %81

81:                                               ; preds = %70
  store i1 false, ptr %4, align 1
  store i32 1, ptr %10, align 4
  br label %89

82:                                               ; preds = %70
  %83 = load ptr, ptr %9, align 8
  call void @PQclear(ptr noundef %83)
  br label %84

84:                                               ; preds = %82, %64
  %85 = load ptr, ptr %8, align 8
  %86 = getelementptr inbounds nuw %struct.connection, ptr %85, i32 0, i32 2
  store i8 1, ptr %86, align 8
  br label %87

87:                                               ; preds = %84, %60, %55
  br label %88

88:                                               ; preds = %87, %52
  store i1 true, ptr %4, align 1
  store i32 1, ptr %10, align 4
  br label %89

89:                                               ; preds = %88, %81, %49, %17
  call void @llvm.lifetime.end.p0(i64 8, ptr %9) #5
  call void @llvm.lifetime.end.p0(i64 8, ptr %8) #5
  %90 = load i1, ptr %4, align 1
  ret i1 %90
}