; Function Attrs: nounwind uwtable
define noundef zeroext i1 @ECPGsetcommit(i32 noundef %0, ptr noundef %1, ptr noundef %2) local_unnamed_addr #0 {
  %4 = tail call ptr @ecpg_get_connection(ptr noundef %2)
  %5 = tail call zeroext i1 @ecpg_init(ptr noundef %4, ptr noundef %2, i32 noundef %0) #8
  br i1 %5, label %6, label %.thread

6:                                                ; preds = %3
  %7 = load ptr, ptr %4, align 8
  tail call void (ptr, ...) @ecpg_log(ptr noundef nonnull @.str.1, i32 noundef %0, ptr noundef %1, ptr noundef %7) #8
  %8 = getelementptr inbounds nuw i8, ptr %4, i64 16
  %9 = load i8, ptr %8, align 8, !range !5, !noundef !6
  %10 = trunc nuw i8 %9 to i1
  %11 = load i8, ptr %1, align 1
  %.not30 = icmp eq i8 %11, 111
  br i1 %10, label %sub_0, label %sub_026

sub_0:                                            ; preds = %6
  br i1 %.not30, label %sub_1, label %.thread

sub_1:                                            ; preds = %sub_0
  %12 = getelementptr inbounds nuw i8, ptr %1, i64 1
  %13 = load i8, ptr %12, align 1
  %.not31 = icmp eq i8 %13, 102
  br i1 %.not31, label %.tail, label %.thread

.tail:                                            ; preds = %sub_1
  %14 = getelementptr inbounds nuw i8, ptr %1, i64 2
  %15 = load i8, ptr %14, align 1
  %16 = icmp eq i8 %15, 102
  br i1 %16, label %17, label %.thread

17:                                               ; preds = %.tail
  %18 = getelementptr inbounds nuw i8, ptr %4, i64 8
  %19 = load ptr, ptr %18, align 8
  %20 = tail call i32 @PQtransactionStatus(ptr noundef %19) #8
  %21 = icmp eq i32 %20, 0
  br i1 %21, label %22, label %.thread.sink.split

22:                                               ; preds = %17
  %23 = load ptr, ptr %18, align 8
  %24 = tail call ptr @PQexec(ptr noundef %23, ptr noundef nonnull @.str.3) #8
  %25 = load ptr, ptr %18, align 8
  %26 = tail call zeroext i1 @ecpg_check_PQresult(ptr noundef %24, i32 noundef %0, ptr noundef %25, i32 noundef 0) #8
  br i1 %26, label %.thread.sink.split.sink.split, label %.thread

sub_026:                                          ; preds = %6
  br i1 %.not30, label %.tail25, label %.thread

.tail25:                                          ; preds = %sub_026
  %27 = getelementptr inbounds nuw i8, ptr %1, i64 1
  %28 = load i8, ptr %27, align 1
  %29 = icmp eq i8 %28, 110
  br i1 %29, label %30, label %.thread

30:                                               ; preds = %.tail25
  %31 = getelementptr inbounds nuw i8, ptr %4, i64 8
  %32 = load ptr, ptr %31, align 8
  %33 = tail call i32 @PQtransactionStatus(ptr noundef %32) #8
  %.not = icmp eq i32 %33, 0
  br i1 %.not, label %.thread.sink.split, label %34

34:                                               ; preds = %30
  %35 = load ptr, ptr %31, align 8
  %36 = tail call ptr @PQexec(ptr noundef %35, ptr noundef nonnull @.str.5) #8
  %37 = load ptr, ptr %31, align 8
  %38 = tail call zeroext i1 @ecpg_check_PQresult(ptr noundef %36, i32 noundef %0, ptr noundef %37, i32 noundef 0) #8
  br i1 %38, label %.thread.sink.split.sink.split, label %.thread

.thread.sink.split.sink.split:                    ; preds = %34, %22
  %.sink32 = phi ptr [ %24, %22 ], [ %36, %34 ]
  %.sink.ph = phi i8 [ 0, %22 ], [ 1, %34 ]
  tail call void @PQclear(ptr noundef %.sink32) #8
  br label %.thread.sink.split

.thread.sink.split:                               ; preds = %.thread.sink.split.sink.split, %30, %17
  %.sink = phi i8 [ 0, %17 ], [ 1, %30 ], [ %.sink.ph, %.thread.sink.split.sink.split ]
  store i8 %.sink, ptr %8, align 8
  br label %.thread

.thread:                                          ; preds = %.thread.sink.split, %sub_026, %sub_1, %sub_0, %.tail, %.tail25, %34, %22, %3
  %.0 = phi i1 [ false, %3 ], [ false, %22 ], [ false, %34 ], [ true, %.tail25 ], [ true, %.tail ], [ true, %sub_0 ], [ true, %sub_1 ], [ true, %sub_026 ], [ true, %.thread.sink.split ]
  ret i1 %.0
}